target datalayout = "e-m:e-p270:32:32-p271:32:32-p272:64:64-i64:64-i128:128-f80:128-n8:16:32:64-S128"
target triple = "x86_64-pc-linux-gnu"

%struct.packet_netlink_data = type { i32, i32, i16 }

@.str.72 = private unnamed_addr constant [10 x i8] c"Rx errors\00", align 1
@.str.74 = private unnamed_addr constant [10 x i8] c"Tx errors\00", align 1
@ett_netlink_route_attr_linkstats_rxerrs = internal global i32 0, align 4
@ett_netlink_route_attr_linkstats_txerrs = internal global i32 0, align 4

; Function Attrs: null_pointer_is_valid sspstrong uwtable
define internal i32 @dissect_netlink_route_ifla_linkstats(ptr noundef %0, ptr noundef %1, ptr noundef %2, ptr noundef %3, i32 noundef %4, i32 noundef %5) #0 {
  %7 = alloca ptr, align 8
  %8 = alloca ptr, align 8
  %9 = alloca ptr, align 8
  %10 = alloca ptr, align 8
  %11 = alloca i32, align 4
  %12 = alloca i32, align 4
  %13 = alloca ptr, align 8
  %14 = alloca i32, align 4
  %15 = alloca ptr, align 8
  %16 = alloca i32, align 4
  %17 = alloca i64, align 8
  %18 = alloca i32, align 4
  %19 = alloca i32, align 4
  store ptr %0, ptr %7, align 8
  store ptr %1, ptr %8, align 8
  store ptr %2, ptr %9, align 8
  store ptr %3, ptr %10, align 8
  store i32 %4, ptr %11, align 4
  store i32 %5, ptr %12, align 4
  call void @llvm.lifetime.start.p0(i64 8, ptr %13) #4
  call void @llvm.lifetime.start.p0(i64 4, ptr %14) #4
  store i32 6, ptr %14, align 4
  call void @llvm.lifetime.start.p0(i64 8, ptr %15) #4
  call void @llvm.lifetime.start.p0(i64 4, ptr %16) #4
  store i32 5, ptr %16, align 4
  call void @llvm.lifetime.start.p0(i64 8, ptr %17) #4
  store i64 0, ptr %17, align 8
  br label %20

20:                                               ; preds = %40, %6
  %21 = load i64, ptr %17, align 8
  %22 = icmp ult i64 %21, 10
  br i1 %22, label %24, label %23

23:                                               ; preds = %20
  call void @llvm.lifetime.end.p0(i64 8, ptr %17) #4
  br label %43

24:                                               ; preds = %20
  %25 = load ptr, ptr %10, align 8
  %26 = load i64, ptr %17, align 8
  %27 = getelementptr [10 x ptr], ptr @linkstat_root_hfs, i64 0, i64 %26
  %28 = load ptr, ptr %27, align 8
  %29 = load i32, ptr %28, align 4
  %30 = load ptr, ptr %7, align 8
  %31 = load i32, ptr %11, align 4
  %32 = load i32, ptr %12, align 4
  %33 = load ptr, ptr %9, align 8
  %34 = getelementptr inbounds nuw %struct.packet_netlink_data, ptr %33, i32 0, i32 1
  %35 = load i32, ptr %34, align 4
  %36 = call ptr @proto_tree_add_item(ptr noundef %25, i32 noundef %29, ptr noundef %30, i32 noundef %31, i32 noundef %32, i32 noundef %35)
  %37 = load i32, ptr %12, align 4
  %38 = load i32, ptr %11, align 4
  %39 = add i32 %38, %37
  store i32 %39, ptr %11, align 4
  br label %40

40:                                               ; preds = %24
  %41 = load i64, ptr %17, align 8
  %42 = add i64 %41, 1
  store i64 %42, ptr %17, align 8
  br label %20, !llvm.loop !10

43:                                               ; preds = %23
  %44 = load ptr, ptr %10, align 8
  %45 = load ptr, ptr %7, align 8
  %46 = load i32, ptr %11, align 4
  %47 = load i32, ptr %12, align 4
  %48 = mul i32 %47, 6
  %49 = load i32, ptr @ett_netlink_route_attr_linkstats_rxerrs, align 4
  %50 = call ptr @proto_tree_add_subtree(ptr noundef %44, ptr noundef %45, i32 noundef %46, i32 noundef %48, i32 noundef %49, ptr noundef null, ptr noundef @.str.72)
  store ptr %50, ptr %13, align 8
  call void @llvm.lifetime.start.p0(i64 4, ptr %18) #4
  store i32 0, ptr %18, align 4
  br label %51

51:                                               ; preds = %72, %43
  %52 = load i32, ptr %18, align 4
  %53 = icmp slt i32 %52, 6
  br i1 %53, label %55, label %54

54:                                               ; preds = %51
  call void @llvm.lifetime.end.p0(i64 4, ptr %18) #4
  br label %75

55:                                               ; preds = %51
  %56 = load ptr, ptr %13, align 8
  %57 = load i32, ptr %18, align 4
  %58 = sext i32 %57 to i64
  %59 = getelementptr [6 x ptr], ptr @linkstat_rxerr_hfs, i64 0, i64 %58
  %60 = load ptr, ptr %59, align 8
  %61 = load i32, ptr %60, align 4
  %62 = load ptr, ptr %7, align 8
  %63 = load i32, ptr %11, align 4
  %64 = load i32, ptr %12, align 4
  %65 = load ptr, ptr %9, align 8
  %66 = getelementptr inbounds nuw %struct.packet_netlink_data, ptr %65, i32 0, i32 1
  %67 = load i32, ptr %66, align 4
  %68 = call ptr @proto_tree_add_item(ptr noundef %56, i32 noundef %61, ptr noundef %62, i32 noundef %63, i32 noundef %64, i32 noundef %67)
  %69 = load i32, ptr %12, align 4
  %70 = load i32, ptr %11, align 4
  %71 = add i32 %70, %69
  store i32 %71, ptr %11, align 4
  br label %72

72:                                               ; preds = %55
  %73 = load i32, ptr %18, align 4
  %74 = add i32 %73, 1
  store i32 %74, ptr %18, align 4
  br label %51, !llvm.loop !11

75:                                               ; preds = %54
  %76 = load ptr, ptr %10, align 8
  %77 = load ptr, ptr %7, align 8
  %78 = load i32, ptr %11, align 4
  %79 = load i32, ptr %12, align 4
  %80 = mul i32 %79, 5
  %81 = load i32, ptr @ett_netlink_route_attr_linkstats_txerrs, align 4
  %82 = call ptr @proto_tree_add_subtree(ptr noundef %76, ptr noundef %77, i32 noundef %78, i32 noundef %80, i32 noundef %81, ptr noundef null, ptr noundef @.str.74)
  store ptr %82, ptr %15, align 8
  call void @llvm.lifetime.start.p0(i64 4, ptr %19) #4
  store i32 0, ptr %19, align 4
  br label %83

83:                                               ; preds = %104, %75
  %84 = load i32, ptr %19, align 4
  %85 = icmp slt i32 %84, 5
  br i1 %85, label %87, label %86

86:                                               ; preds = %83
  call void @llvm.lifetime.end.p0(i64 4, ptr %19) #4
  br label %107

87:                                               ; preds = %83
  %88 = load ptr, ptr %15, align 8
  %89 = load i32, ptr %19, align 4
  %90 = sext i32 %89 to i64
  %91 = getelementptr [5 x ptr], ptr @linkstat_txerr_hfs, i64 0, i64 %90
  %92 = load ptr, ptr %91, align 8
  %93 = load i32, ptr %92, align 4
  %94 = load ptr, ptr %7, align 8
  %95 = load i32, ptr %11, align 4
  %96 = load i32, ptr %12, align 4
  %97 = load ptr, ptr %9, align 8
  %98 = getelementptr inbounds nuw %struct.packet_netlink_data, ptr %97, i32 0, i32 1
  %99 = load i32, ptr %98, align 4
  %100 = call ptr @proto_tree_add_item(ptr noundef %88, i32 noundef %93, ptr noundef %94, i32 noundef %95, i32 noundef %96, i32 noundef %99)
  %101 = load i32, ptr %12, align 4
  %102 = load i32, ptr %11, align 4
  %103 = add i32 %102, %101
  store i32 %103, ptr %11, align 4
  br label %104

104:                                              ; preds = %87
  %105 = load i32, ptr %19, align 4
  %106 = add i32 %105, 1
  store i32 %106, ptr %19, align 4
  br label %83, !llvm.loop !12

107:                                              ; preds = %86
  call void @llvm.lifetime.end.p0(i64 4, ptr %16) #4
  call void @llvm.lifetime.end.p0(i64 8, ptr %15) #4
  call void @llvm.lifetime.end.p0(i64 4, ptr %14) #4
  call void @llvm.lifetime.end.p0(i64 8, ptr %13) #4
  ret i32 1
}