; Function Attrs: null_pointer_is_valid sspstrong uwtable
define internal fastcc void @dissect_netlink_route_ifla_linkstats(ptr noundef %0, ptr noundef readonly captures(none) %1, ptr noundef %2, i32 noundef %3, i32 noundef range(i32 4, 9) %4) unnamed_addr #0 {
  %6 = getelementptr inbounds nuw i8, ptr %1, i64 4
  br label %11

7:                                                ; preds = %11
  %8 = mul nuw nsw i32 %4, 6
  %9 = load i32, ptr @ett_netlink_route_attr_linkstats_rxerrs, align 4
  %10 = tail call ptr @proto_tree_add_subtree(ptr noundef %2, ptr noundef %0, i32 noundef %17, i32 noundef %8, i32 noundef %9, ptr noundef null, ptr noundef nonnull @.str.72)
  br label %23

11:                                               ; preds = %5, %11
  %.0382 = phi i64 [ 0, %5 ], [ %18, %11 ]
  %.0391 = phi i32 [ %3, %5 ], [ %17, %11 ]
  %12 = getelementptr [10 x ptr], ptr @linkstat_root_hfs, i64 0, i64 %.0382
  %13 = load ptr, ptr %12, align 8
  %14 = load i32, ptr %13, align 4
  %15 = load i32, ptr %6, align 4
  %16 = tail call ptr @proto_tree_add_item(ptr noundef %2, i32 noundef %14, ptr noundef %0, i32 noundef %.0391, i32 noundef %4, i32 noundef %15)
  %17 = add i32 %.0391, %4
  %18 = add nuw nsw i64 %.0382, 1
  %exitcond.not = icmp eq i64 %18, 10
  br i1 %exitcond.not, label %7, label %11, !llvm.loop !10

19:                                               ; preds = %23
  %20 = mul nuw nsw i32 %4, 5
  %21 = load i32, ptr @ett_netlink_route_attr_linkstats_txerrs, align 4
  %22 = tail call ptr @proto_tree_add_subtree(ptr noundef %2, ptr noundef %0, i32 noundef %29, i32 noundef %20, i32 noundef %21, ptr noundef null, ptr noundef nonnull @.str.74)
  br label %31

23:                                               ; preds = %7, %23
  %indvars.iv = phi i64 [ 0, %7 ], [ %indvars.iv.next, %23 ]
  %.13 = phi i32 [ %17, %7 ], [ %29, %23 ]
  %24 = getelementptr [6 x ptr], ptr @linkstat_rxerr_hfs, i64 0, i64 %indvars.iv
  %25 = load ptr, ptr %24, align 8
  %26 = load i32, ptr %25, align 4
  %27 = load i32, ptr %6, align 4
  %28 = tail call ptr @proto_tree_add_item(ptr noundef %10, i32 noundef %26, ptr noundef %0, i32 noundef %.13, i32 noundef %4, i32 noundef %27)
  %29 = add i32 %.13, %4
  %indvars.iv.next = add nuw nsw i64 %indvars.iv, 1
  %exitcond9.not = icmp eq i64 %indvars.iv.next, 6
  br i1 %exitcond9.not, label %19, label %23, !llvm.loop !11

30:                                               ; preds = %31
  ret void

31:                                               ; preds = %19, %31
  %indvars.iv10 = phi i64 [ 0, %19 ], [ %indvars.iv.next11, %31 ]
  %.25 = phi i32 [ %29, %19 ], [ %37, %31 ]
  %32 = getelementptr [5 x ptr], ptr @linkstat_txerr_hfs, i64 0, i64 %indvars.iv10
  %33 = load ptr, ptr %32, align 8
  %34 = load i32, ptr %33, align 4
  %35 = load i32, ptr %6, align 4
  %36 = tail call ptr @proto_tree_add_item(ptr noundef %22, i32 noundef %34, ptr noundef %0, i32 noundef %.25, i32 noundef %4, i32 noundef %35)
  %37 = add i32 %.25, %4
  %indvars.iv.next11 = add nuw nsw i64 %indvars.iv10, 1
  %exitcond13.not = icmp eq i64 %indvars.iv.next11, 5
  br i1 %exitcond13.not, label %30, label %31, !llvm.loop !12
}